#include <math.h>
#include <stdio.h>
#include <stdlib.h>
#include <string.h>
#include <iostream>
using namespace std;

/*
 * 1.cpp
 *???????????????????????????????????
?????????????????????????????

??????????? int a[20]={1,3,3,0,-3,5,6,8,3,10,22,-1,3,5,11,20,100,3,9,3};
??????3?????????????20???9?????????
????????????????????????????*?????????????
1, 0, -3, 5, 6, 8, 10, 22, -1, 5, 11, 20, 100, 9, *, *, *, *, *, *
???????????????
1 0 -3 5 6 8 10 22 -1 5 11 20 100 9

???????????????????????????????????
    ???????????????????????????
 *
 *  Created on: 2013-10-25
 *      Author: 13190
 */
int main()
{
	int n=0,k=0,i=0,j=0;
	cin>>n;

	int a[n];
	for(i=0;i<n;i++)
		cin>>a[i];
	    cin>>k;
	for(i=0;i<n;i++)
	{
		if(a[i]!=k)
			{
			a[j]=a[i];//???????????
		    j++;
			}
	}
	for(int s=0;s<j;s++)//???????
	{
		if(s<j-1)
		cout<<a[s]<<" ";//??????????
		if(s==j-1)
			cout<<a[s];

	}
	return 0;
}

