; ModuleID = 'source-C-CXX/41/1725.cpp'
source_filename = "source-C-CXX/41/1725.cpp"
target datalayout = "e-m:e-p270:32:32-p271:32:32-p272:64:64-i64:64-f80:128-n8:16:32:64-S128"
target triple = "x86_64-pc-linux-gnu"

%"class.std::ios_base::Init" = type { i8 }
%"class.std::basic_istream" = type { i32 (...)**, i64, %"class.std::basic_ios" }
%"class.std::basic_ios" = type { %"class.std::ios_base", %"class.std::basic_ostream"*, i8, i8, %"class.std::basic_streambuf"*, %"class.std::ctype"*, %"class.std::num_put"*, %"class.std::num_get"* }
%"class.std::ios_base" = type { i32 (...)**, i64, i64, i32, i32, i32, %"struct.std::ios_base::_Callback_list"*, %"struct.std::ios_base::_Words", [8 x %"struct.std::ios_base::_Words"], i32, %"struct.std::ios_base::_Words"*, %"class.std::locale" }
%"struct.std::ios_base::_Callback_list" = type { %"struct.std::ios_base::_Callback_list"*, void (i32, %"class.std::ios_base"*, i32)*, i32, i32 }
%"struct.std::ios_base::_Words" = type { i8*, i64 }
%"class.std::locale" = type { %"class.std::locale::_Impl"* }
%"class.std::locale::_Impl" = type { i32, %"class.std::locale::facet"**, i64, %"class.std::locale::facet"**, i8** }
%"class.std::locale::facet" = type <{ i32 (...)**, i32, [4 x i8] }>
%"class.std::basic_ostream" = type { i32 (...)**, %"class.std::basic_ios" }
%"class.std::basic_streambuf" = type { i32 (...)**, i8*, i8*, i8*, i8*, i8*, i8*, %"class.std::locale" }
%"class.std::ctype" = type <{ %"class.std::locale::facet.base", [4 x i8], %struct.__locale_struct*, i8, [7 x i8], i32*, i32*, i16*, i8, [256 x i8], [256 x i8], i8, [6 x i8] }>
%"class.std::locale::facet.base" = type <{ i32 (...)**, i32 }>
%struct.__locale_struct = type { [13 x %struct.__locale_data*], i16*, i32*, i32*, [13 x i8*] }
%struct.__locale_data = type opaque
%"class.std::num_put" = type { %"class.std::locale::facet.base", [4 x i8] }
%"class.std::num_get" = type { %"class.std::locale::facet.base", [4 x i8] }

@_ZStL8__ioinit = internal global %"class.std::ios_base::Init" zeroinitializer, align 1
@__dso_handle = external hidden global i8
@_ZSt3cin = external global %"class.std::basic_istream", align 8
@_ZSt4cout = external global %"class.std::basic_ostream", align 8
@.str = private unnamed_addr constant [2 x i8] c" \00", align 1
@llvm.global_ctors = appending global [1 x { i32, void ()*, i8* }] [{ i32, void ()*, i8* } { i32 65535, void ()* @_GLOBAL__sub_I_1725.cpp, i8* null }]

declare void @_ZNSt8ios_base4InitC1Ev(%"class.std::ios_base::Init"* nonnull align 1 dereferenceable(1)) unnamed_addr #0

; Function Attrs: nounwind
declare void @_ZNSt8ios_base4InitD1Ev(%"class.std::ios_base::Init"* nonnull align 1 dereferenceable(1)) unnamed_addr #1

; Function Attrs: nofree nounwind
declare i32 @__cxa_atexit(void (i8*)*, i8*, i8*) local_unnamed_addr #2

; Function Attrs: mustprogress norecurse sspstrong uwtable
define dso_local i32 @main() local_unnamed_addr #3 {
  %1 = alloca i32, align 4
  %2 = alloca i32, align 4
  %3 = bitcast i32* %1 to i8*
  call void @llvm.lifetime.start.p0i8(i64 4, i8* nonnull %3) #7
  store i32 0, i32* %1, align 4, !tbaa !5
  %4 = bitcast i32* %2 to i8*
  call void @llvm.lifetime.start.p0i8(i64 4, i8* nonnull %4) #7
  store i32 0, i32* %2, align 4, !tbaa !5
  %5 = call nonnull align 8 dereferenceable(16) %"class.std::basic_istream"* @_ZNSirsERi(%"class.std::basic_istream"* nonnull align 8 dereferenceable(16) @_ZSt3cin, i32* nonnull align 4 dereferenceable(4) %1)
  %6 = load i32, i32* %1, align 4, !tbaa !5
  %7 = zext i32 %6 to i64
  %8 = call i8* @llvm.stacksave()
  %9 = alloca i32, i64 %7, align 16
  %10 = load i32, i32* %1, align 4, !tbaa !5
  %11 = icmp sgt i32 %10, 0
  br i1 %11, label %12, label %20

12:                                               ; preds = %0, %12
  %13 = phi i64 [ %16, %12 ], [ 0, %0 ]
  %14 = getelementptr inbounds i32, i32* %9, i64 %13
  %15 = call nonnull align 8 dereferenceable(16) %"class.std::basic_istream"* @_ZNSirsERi(%"class.std::basic_istream"* nonnull align 8 dereferenceable(16) @_ZSt3cin, i32* nonnull align 4 dereferenceable(4) %14)
  %16 = add nuw nsw i64 %13, 1
  %17 = load i32, i32* %1, align 4, !tbaa !5
  %18 = sext i32 %17 to i64
  %19 = icmp slt i64 %16, %18
  br i1 %19, label %12, label %20, !llvm.loop !9

20:                                               ; preds = %12, %0
  %21 = call nonnull align 8 dereferenceable(16) %"class.std::basic_istream"* @_ZNSirsERi(%"class.std::basic_istream"* nonnull align 8 dereferenceable(16) @_ZSt3cin, i32* nonnull align 4 dereferenceable(4) %2)
  %22 = load i32, i32* %1, align 4, !tbaa !5
  %23 = load i32, i32* %2, align 4
  %24 = icmp sgt i32 %22, 0
  br i1 %24, label %25, label %70

25:                                               ; preds = %20
  %26 = zext i32 %22 to i64
  %27 = and i64 %26, 1
  %28 = icmp eq i32 %22, 1
  br i1 %28, label %31, label %29

29:                                               ; preds = %25
  %30 = and i64 %26, 4294967294
  br label %53

31:                                               ; preds = %91, %25
  %32 = phi i32 [ undef, %25 ], [ %92, %91 ]
  %33 = phi i64 [ 0, %25 ], [ %93, %91 ]
  %34 = phi i32 [ 0, %25 ], [ %92, %91 ]
  %35 = icmp eq i64 %27, 0
  br i1 %35, label %44, label %36

36:                                               ; preds = %31
  %37 = getelementptr inbounds i32, i32* %9, i64 %33
  %38 = load i32, i32* %37, align 4, !tbaa !5
  %39 = icmp eq i32 %38, %23
  br i1 %39, label %44, label %40

40:                                               ; preds = %36
  %41 = sext i32 %34 to i64
  %42 = getelementptr inbounds i32, i32* %9, i64 %41
  store i32 %38, i32* %42, align 4, !tbaa !5
  %43 = add nsw i32 %34, 1
  br label %44

44:                                               ; preds = %40, %36, %31
  %45 = phi i32 [ %32, %31 ], [ %43, %40 ], [ %34, %36 ]
  %46 = add nsw i32 %45, -1
  %47 = icmp sgt i32 %45, 0
  br i1 %47, label %48, label %70

48:                                               ; preds = %44
  %49 = zext i32 %46 to i64
  %50 = zext i32 %46 to i64
  %51 = zext i32 %45 to i64
  %52 = getelementptr inbounds i32, i32* %9, i64 %50
  br label %71

53:                                               ; preds = %91, %29
  %54 = phi i64 [ 0, %29 ], [ %93, %91 ]
  %55 = phi i32 [ 0, %29 ], [ %92, %91 ]
  %56 = phi i64 [ %30, %29 ], [ %94, %91 ]
  %57 = getelementptr inbounds i32, i32* %9, i64 %54
  %58 = load i32, i32* %57, align 8, !tbaa !5
  %59 = icmp eq i32 %58, %23
  br i1 %59, label %64, label %60

60:                                               ; preds = %53
  %61 = sext i32 %55 to i64
  %62 = getelementptr inbounds i32, i32* %9, i64 %61
  store i32 %58, i32* %62, align 4, !tbaa !5
  %63 = add nsw i32 %55, 1
  br label %64

64:                                               ; preds = %53, %60
  %65 = phi i32 [ %63, %60 ], [ %55, %53 ]
  %66 = or i64 %54, 1
  %67 = getelementptr inbounds i32, i32* %9, i64 %66
  %68 = load i32, i32* %67, align 4, !tbaa !5
  %69 = icmp eq i32 %68, %23
  br i1 %69, label %91, label %87

70:                                               ; preds = %84, %20, %44
  call void @llvm.stackrestore(i8* %8)
  call void @llvm.lifetime.end.p0i8(i64 4, i8* nonnull %4) #7
  call void @llvm.lifetime.end.p0i8(i64 4, i8* nonnull %3) #7
  ret i32 0

71:                                               ; preds = %48, %84
  %72 = phi i64 [ 0, %48 ], [ %85, %84 ]
  %73 = icmp ult i64 %72, %49
  br i1 %73, label %74, label %79

74:                                               ; preds = %71
  %75 = getelementptr inbounds i32, i32* %9, i64 %72
  %76 = load i32, i32* %75, align 4, !tbaa !5
  %77 = call nonnull align 8 dereferenceable(8) %"class.std::basic_ostream"* @_ZNSolsEi(%"class.std::basic_ostream"* nonnull align 8 dereferenceable(8) @_ZSt4cout, i32 %76)
  %78 = call nonnull align 8 dereferenceable(8) %"class.std::basic_ostream"* @_ZSt16__ostream_insertIcSt11char_traitsIcEERSt13basic_ostreamIT_T0_ES6_PKS3_l(%"class.std::basic_ostream"* nonnull align 8 dereferenceable(8) %77, i8* nonnull getelementptr inbounds ([2 x i8], [2 x i8]* @.str, i64 0, i64 0), i64 1)
  br label %79

79:                                               ; preds = %74, %71
  %80 = icmp eq i64 %72, %50
  br i1 %80, label %81, label %84

81:                                               ; preds = %79
  %82 = load i32, i32* %52, align 4, !tbaa !5
  %83 = call nonnull align 8 dereferenceable(8) %"class.std::basic_ostream"* @_ZNSolsEi(%"class.std::basic_ostream"* nonnull align 8 dereferenceable(8) @_ZSt4cout, i32 %82)
  br label %84

84:                                               ; preds = %79, %81
  %85 = add nuw nsw i64 %72, 1
  %86 = icmp eq i64 %85, %51
  br i1 %86, label %70, label %71, !llvm.loop !11

87:                                               ; preds = %64
  %88 = sext i32 %65 to i64
  %89 = getelementptr inbounds i32, i32* %9, i64 %88
  store i32 %68, i32* %89, align 4, !tbaa !5
  %90 = add nsw i32 %65, 1
  br label %91

91:                                               ; preds = %87, %64
  %92 = phi i32 [ %90, %87 ], [ %65, %64 ]
  %93 = add nuw nsw i64 %54, 2
  %94 = add i64 %56, -2
  %95 = icmp eq i64 %94, 0
  br i1 %95, label %31, label %53, !llvm.loop !12
}

; Function Attrs: argmemonly mustprogress nofree nosync nounwind willreturn
declare void @llvm.lifetime.start.p0i8(i64 immarg, i8* nocapture) #4

declare nonnull align 8 dereferenceable(16) %"class.std::basic_istream"* @_ZNSirsERi(%"class.std::basic_istream"* nonnull align 8 dereferenceable(16), i32* nonnull align 4 dereferenceable(4)) local_unnamed_addr #0

; Function Attrs: mustprogress nofree nosync nounwind willreturn
declare i8* @llvm.stacksave() #5

declare nonnull align 8 dereferenceable(8) %"class.std::basic_ostream"* @_ZNSolsEi(%"class.std::basic_ostream"* nonnull align 8 dereferenceable(8), i32) local_unnamed_addr #0

; Function Attrs: argmemonly mustprogress nofree nosync nounwind willreturn
declare void @llvm.lifetime.end.p0i8(i64 immarg, i8* nocapture) #4

; Function Attrs: mustprogress nofree nosync nounwind willreturn
declare void @llvm.stackrestore(i8*) #5

declare nonnull align 8 dereferenceable(8) %"class.std::basic_ostream"* @_ZSt16__ostream_insertIcSt11char_traitsIcEERSt13basic_ostreamIT_T0_ES6_PKS3_l(%"class.std::basic_ostream"* nonnull align 8 dereferenceable(8), i8*, i64) local_unnamed_addr #0

; Function Attrs: sspstrong uwtable
define internal void @_GLOBAL__sub_I_1725.cpp() #6 section ".text.startup" {
  tail call void @_ZNSt8ios_base4InitC1Ev(%"class.std::ios_base::Init"* nonnull align 1 dereferenceable(1) @_ZStL8__ioinit)
  %1 = tail call i32 @__cxa_atexit(void (i8*)* bitcast (void (%"class.std::ios_base::Init"*)* @_ZNSt8ios_base4InitD1Ev to void (i8*)*), i8* getelementptr inbounds (%"class.std::ios_base::Init", %"class.std::ios_base::Init"* @_ZStL8__ioinit, i64 0, i32 0), i8* nonnull @__dso_handle) #7
  ret void
}


!llvm.module.flags = !{!0, !1, !2, !3}
!llvm.ident = !{!4}

!0 = !{i32 1, !"wchar_size", i32 4}
!1 = !{i32 7, !"PIC Level", i32 2}
!2 = !{i32 7, !"PIE Level", i32 2}
!3 = !{i32 7, !"uwtable", i32 1}
!4 = !{!"clang version 13.0.0"}
!5 = !{!6, !6, i64 0}
!6 = !{!"int", !7, i64 0}
!7 = !{!"omnipotent char", !8, i64 0}
!8 = !{!"Simple C++ TBAA"}
!9 = distinct !{!9, !10}
!10 = !{!"llvm.loop.mustprogress"}
!11 = distinct !{!11, !10}
!12 = distinct !{!12, !10}
